; Function Attrs: mustprogress nounwind uwtable
define void @_ZN9grpc_core8channelz14SubchannelNodeD2Ev(ptr noundef nonnull align 8 dereferenceable(216) %0) unnamed_addr #4 align 2 personality ptr @__gxx_personality_v0 {
  %2 = getelementptr inbounds nuw i8, ptr %0, i64 152
  tail call void @_ZN9grpc_core8channelz12ChannelTraceD1Ev(ptr noundef nonnull align 8 dereferenceable(64) %2) #32
  %3 = getelementptr inbounds nuw i8, ptr %0, i64 88
  %4 = load ptr, ptr %3, align 8, !tbaa !23
  %5 = getelementptr inbounds nuw i8, ptr %0, i64 104
  %6 = icmp eq ptr %4, %5
  br i1 %6, label %_ZNKSt7__cxx1112basic_stringIcSt11char_traitsIcESaIcEE11_M_is_localEv.exit.thread.i.i, label %_ZNKSt7__cxx1112basic_stringIcSt11char_traitsIcESaIcEE11_M_is_localEv.exit.i.i

_ZNKSt7__cxx1112basic_stringIcSt11char_traitsIcESaIcEE11_M_is_localEv.exit.thread.i.i: ; preds = %1
  %7 = getelementptr inbounds nuw i8, ptr %0, i64 96
  %8 = load i64, ptr %7, align 8, !tbaa !24
  %9 = icmp ult i64 %8, 16
  tail call void @llvm.assume(i1 %9)
  br label %_ZNSt7__cxx1112basic_stringIcSt11char_traitsIcESaIcEED2Ev.exit

_ZNKSt7__cxx1112basic_stringIcSt11char_traitsIcESaIcEE11_M_is_localEv.exit.i.i: ; preds = %1
  %10 = load i64, ptr %5, align 8, !tbaa !25
  %11 = add i64 %10, 1
  tail call void @_ZdlPvm(ptr noundef %4, i64 noundef %11) #30
  br label %_ZNSt7__cxx1112basic_stringIcSt11char_traitsIcESaIcEED2Ev.exit

_ZNSt7__cxx1112basic_stringIcSt11char_traitsIcESaIcEED2Ev.exit: ; preds = %_ZNKSt7__cxx1112basic_stringIcSt11char_traitsIcESaIcEE11_M_is_localEv.exit.thread.i.i, %_ZNKSt7__cxx1112basic_stringIcSt11char_traitsIcESaIcEE11_M_is_localEv.exit.i.i
  %12 = getelementptr inbounds nuw i8, ptr %0, i64 80
  %13 = load ptr, ptr %12, align 8, !tbaa !181
  %.not.i = icmp eq ptr %13, null
  br i1 %.not.i, label %_ZN9grpc_core13RefCountedPtrINS_8channelz10SocketNodeEED2Ev.exit, label %14

14:                                               ; preds = %_ZNSt7__cxx1112basic_stringIcSt11char_traitsIcESaIcEED2Ev.exit
  %15 = getelementptr inbounds nuw i8, ptr %13, i64 8
  %16 = atomicrmw sub ptr %15, i64 1 acq_rel, align 8
  %17 = icmp eq i64 %16, 1
  br i1 %17, label %18, label %_ZN9grpc_core13RefCountedPtrINS_8channelz10SocketNodeEED2Ev.exit, !prof !28

18:                                               ; preds = %14
  %19 = load ptr, ptr %13, align 8, !tbaa !8
  %20 = getelementptr inbounds nuw i8, ptr %19, i64 8
  %21 = load ptr, ptr %20, align 8
  tail call void %21(ptr noundef nonnull align 8 dereferenceable(64) %13) #32
  br label %_ZN9grpc_core13RefCountedPtrINS_8channelz10SocketNodeEED2Ev.exit

_ZN9grpc_core13RefCountedPtrINS_8channelz10SocketNodeEED2Ev.exit: ; preds = %_ZNSt7__cxx1112basic_stringIcSt11char_traitsIcESaIcEED2Ev.exit, %14, %18
  store ptr getelementptr inbounds nuw inrange(-16, 24) (i8, ptr @_ZTVN9grpc_core8channelz8BaseNodeE, i64 16), ptr %0, align 8, !tbaa !8
  %22 = getelementptr inbounds nuw i8, ptr %0, i64 24
  %23 = load i64, ptr %22, align 8, !tbaa !21
  %24 = invoke noundef ptr @_ZN9grpc_core8channelz16ChannelzRegistry7DefaultEv()
          to label %.noexc.i unwind label %34

.noexc.i:                                         ; preds = %_ZN9grpc_core13RefCountedPtrINS_8channelz10SocketNodeEED2Ev.exit
  invoke void @_ZN9grpc_core8channelz16ChannelzRegistry18InternalUnregisterEl(ptr noundef nonnull align 8 dereferenceable(64) %24, i64 noundef %23)
          to label %_ZN9grpc_core8channelz16ChannelzRegistry10UnregisterEl.exit.i unwind label %34

_ZN9grpc_core8channelz16ChannelzRegistry10UnregisterEl.exit.i: ; preds = %.noexc.i
  %25 = getelementptr inbounds nuw i8, ptr %0, i64 32
  %26 = load ptr, ptr %25, align 8, !tbaa !23
  %27 = getelementptr inbounds nuw i8, ptr %0, i64 48
  %28 = icmp eq ptr %26, %27
  br i1 %28, label %_ZNKSt7__cxx1112basic_stringIcSt11char_traitsIcESaIcEE11_M_is_localEv.exit.thread.i.i.i, label %_ZNKSt7__cxx1112basic_stringIcSt11char_traitsIcESaIcEE11_M_is_localEv.exit.i.i.i

_ZNKSt7__cxx1112basic_stringIcSt11char_traitsIcESaIcEE11_M_is_localEv.exit.thread.i.i.i: ; preds = %_ZN9grpc_core8channelz16ChannelzRegistry10UnregisterEl.exit.i
  %29 = getelementptr inbounds nuw i8, ptr %0, i64 40
  %30 = load i64, ptr %29, align 8, !tbaa !24
  %31 = icmp ult i64 %30, 16
  tail call void @llvm.assume(i1 %31)
  br label %_ZN9grpc_core8channelz8BaseNodeD2Ev.exit

_ZNKSt7__cxx1112basic_stringIcSt11char_traitsIcESaIcEE11_M_is_localEv.exit.i.i.i: ; preds = %_ZN9grpc_core8channelz16ChannelzRegistry10UnregisterEl.exit.i
  %32 = load i64, ptr %27, align 8, !tbaa !25
  %33 = add i64 %32, 1
  tail call void @_ZdlPvm(ptr noundef %26, i64 noundef %33) #30
  br label %_ZN9grpc_core8channelz8BaseNodeD2Ev.exit

34:                                               ; preds = %.noexc.i, %_ZN9grpc_core13RefCountedPtrINS_8channelz10SocketNodeEED2Ev.exit
  %35 = landingpad { ptr, i32 }
          catch ptr null
  %36 = extractvalue { ptr, i32 } %35, 0
  tail call void @__clang_call_terminate(ptr %36) #31
  unreachable

_ZN9grpc_core8channelz8BaseNodeD2Ev.exit:         ; preds = %_ZNKSt7__cxx1112basic_stringIcSt11char_traitsIcESaIcEE11_M_is_localEv.exit.thread.i.i.i, %_ZNKSt7__cxx1112basic_stringIcSt11char_traitsIcESaIcEE11_M_is_localEv.exit.i.i.i
  ret void
}